target datalayout = "e-m:e-p270:32:32-p271:32:32-p272:64:64-i64:64-i128:128-f80:128-n8:16:32:64-S128"
target triple = "x86_64-pc-linux-gnu"

%struct.RCVLN = type { [5120 x i8], i32, i32, ptr, ptr }

@clamdopts = external global ptr, align 8
@__const.reload_clamd_database.zRELOAD = private unnamed_addr constant [8 x i8] c"zRELOAD\00", align 1
@.str.16 = private unnamed_addr constant [10 x i8] c"RELOADING\00", align 1
@.str.17 = private unnamed_addr constant [35 x i8] c"Clamd did not reload the database\0A\00", align 1

; Function Attrs: nounwind uwtable
define dso_local i32 @reload_clamd_database(ptr noundef %0) #0 {
  %2 = alloca i32, align 4
  %3 = alloca ptr, align 8
  %4 = alloca ptr, align 8
  %5 = alloca i32, align 4
  %6 = alloca i32, align 4
  %7 = alloca %struct.RCVLN, align 8
  %8 = alloca [8 x i8], align 1
  store ptr %0, ptr %3, align 8
  call void @llvm.memcpy.p0.p0.i64(ptr align 1 %8, ptr align 1 @__const.reload_clamd_database.zRELOAD, i64 8, i1 false)
  %9 = load ptr, ptr %3, align 8
  %10 = call i32 @isremote(ptr noundef %9)
  %11 = load ptr, ptr @clamdopts, align 8
  %12 = call i32 @dconnect(ptr noundef %11)
  store i32 %12, ptr %6, align 4
  %13 = icmp slt i32 %12, 0
  br i1 %13, label %14, label %15

14:                                               ; preds = %1
  store i32 2, ptr %2, align 4
  br label %41

15:                                               ; preds = %1
  %16 = load i32, ptr %6, align 4
  call void @recvlninit(ptr noundef %7, i32 noundef %16)
  %17 = load i32, ptr %6, align 4
  %18 = getelementptr inbounds [8 x i8], ptr %8, i64 0, i64 0
  %19 = call i32 @sendln(i32 noundef %17, ptr noundef %18, i32 noundef 8)
  %20 = icmp ne i32 %19, 0
  br i1 %20, label %21, label %24

21:                                               ; preds = %15
  %22 = load i32, ptr %6, align 4
  %23 = call i32 @close(i32 noundef %22)
  store i32 2, ptr %2, align 4
  br label %41

24:                                               ; preds = %15
  %25 = call i32 @recvln(ptr noundef %7, ptr noundef %4, ptr noundef null)
  store i32 %25, ptr %5, align 4
  %26 = icmp ne i32 %25, 0
  br i1 %26, label %27, label %34

27:                                               ; preds = %24
  %28 = load i32, ptr %5, align 4
  %29 = icmp slt i32 %28, 10
  br i1 %29, label %34, label %30

30:                                               ; preds = %27
  %31 = load ptr, ptr %4, align 8
  %32 = call i32 @memcmp(ptr noundef %31, ptr noundef @.str.16, i64 noundef 9) #8
  %33 = icmp ne i32 %32, 0
  br i1 %33, label %34, label %38

34:                                               ; preds = %30, %27, %24
  %35 = call i32 (i32, ptr, ...) @logg(i32 noundef 5, ptr noundef @.str.17)
  %36 = load i32, ptr %6, align 4
  %37 = call i32 @close(i32 noundef %36)
  store i32 2, ptr %2, align 4
  br label %41

38:                                               ; preds = %30
  %39 = load i32, ptr %6, align 4
  %40 = call i32 @close(i32 noundef %39)
  store i32 0, ptr %2, align 4
  br label %41

41:                                               ; preds = %38, %34, %21, %14
  %42 = load i32, ptr %2, align 4
  ret i32 %42
}