; Function Attrs: nounwind uwtable
define dso_local noundef i32 @reload_clamd_database(ptr nocapture noundef readnone %0) local_unnamed_addr #0 {
  %2 = alloca ptr, align 8
  %3 = alloca %struct.RCVLN, align 8
  %4 = alloca [8 x i8], align 8
  store i64 19212107254157946, ptr %4, align 8
  %5 = tail call fastcc i32 @isremote()
  %6 = load ptr, ptr @clamdopts, align 8
  %7 = tail call i32 @dconnect(ptr noundef %6) #14
  %8 = icmp slt i32 %7, 0
  br i1 %8, label %19, label %9

9:                                                ; preds = %1
  call void @recvlninit(ptr noundef nonnull %3, i32 noundef %7) #14
  %10 = call i32 @sendln(i32 noundef %7, ptr noundef nonnull %4, i32 noundef 8) #14
  %.not = icmp eq i32 %10, 0
  br i1 %.not, label %11, label %.sink.split

11:                                               ; preds = %9
  %12 = call i32 @recvln(ptr noundef nonnull %3, ptr noundef nonnull %2, ptr noundef null) #14
  %13 = icmp slt i32 %12, 10
  br i1 %13, label %16, label %14

14:                                               ; preds = %11
  %15 = load ptr, ptr %2, align 8
  %bcmp = call i32 @bcmp(ptr noundef nonnull dereferenceable(9) %15, ptr noundef nonnull dereferenceable(9) @.str.16, i64 9)
  %.not9 = icmp eq i32 %bcmp, 0
  br i1 %.not9, label %.sink.split, label %16

16:                                               ; preds = %14, %11
  %17 = call i32 (i32, ptr, ...) @logg(i32 noundef 5, ptr noundef nonnull @.str.17) #14
  br label %.sink.split

.sink.split:                                      ; preds = %14, %9, %16
  %.0.ph = phi i32 [ 2, %16 ], [ 2, %9 ], [ 0, %14 ]
  %18 = call i32 @close(i32 noundef %7) #14
  br label %19

19:                                               ; preds = %.sink.split, %1
  %.0 = phi i32 [ 2, %1 ], [ %.0.ph, %.sink.split ]
  ret i32 %.0
}